; Function Attrs: nounwind uwtable
define internal noundef i32 @vaapi_encode_mpeg2_write_picture_header(ptr noundef %0, ptr readnone captures(none) %1, ptr noundef writeonly captures(none) %2, ptr noundef captures(none) %3) #3 {
  %5 = getelementptr inbounds nuw i8, ptr %0, i64 32
  %6 = load ptr, ptr %5, align 8, !tbaa !4
  %7 = getelementptr inbounds nuw i8, ptr %6, i64 3032
  %8 = getelementptr inbounds nuw i8, ptr %6, i64 2720
  %9 = tail call i32 @ff_cbs_insert_unit_content(ptr noundef nonnull %7, i32 noundef -1, i32 noundef 0, ptr noundef nonnull %8, ptr noundef null) #10
  %10 = icmp slt i32 %9, 0
  br i1 %10, label %vaapi_encode_mpeg2_add_header.exit.thread, label %vaapi_encode_mpeg2_add_header.exit

vaapi_encode_mpeg2_add_header.exit.thread:        ; preds = %4
  tail call void (ptr, i32, ptr, ...) @av_log(ptr noundef nonnull %0, i32 noundef 16, ptr noundef nonnull @.str.64, i32 noundef 0) #10
  br label %vaapi_encode_mpeg2_write_fragment.exit

vaapi_encode_mpeg2_add_header.exit:               ; preds = %4
  %11 = getelementptr inbounds nuw i8, ptr %6, i64 2760
  %12 = tail call i32 @ff_cbs_insert_unit_content(ptr noundef nonnull %7, i32 noundef -1, i32 noundef 181, ptr noundef nonnull %11, ptr noundef null) #10
  %13 = icmp slt i32 %12, 0
  br i1 %13, label %vaapi_encode_mpeg2_add_header.exit15.thread, label %vaapi_encode_mpeg2_add_header.exit15

vaapi_encode_mpeg2_add_header.exit15.thread:      ; preds = %vaapi_encode_mpeg2_add_header.exit
  tail call void (ptr, i32, ptr, ...) @av_log(ptr noundef nonnull %0, i32 noundef 16, ptr noundef nonnull @.str.64, i32 noundef 181) #10
  br label %vaapi_encode_mpeg2_write_fragment.exit

vaapi_encode_mpeg2_add_header.exit15:             ; preds = %vaapi_encode_mpeg2_add_header.exit
  %14 = load ptr, ptr %5, align 8, !tbaa !4
  %15 = getelementptr inbounds nuw i8, ptr %14, i64 3024
  %16 = load ptr, ptr %15, align 8, !tbaa !190
  %17 = tail call i32 @ff_cbs_write_fragment_data(ptr noundef %16, ptr noundef nonnull %7) #10
  %18 = icmp slt i32 %17, 0
  br i1 %18, label %19, label %20

19:                                               ; preds = %vaapi_encode_mpeg2_add_header.exit15
  tail call void (ptr, i32, ptr, ...) @av_log(ptr noundef nonnull %0, i32 noundef 16, ptr noundef nonnull @.str.65) #10
  br label %vaapi_encode_mpeg2_write_fragment.exit

20:                                               ; preds = %vaapi_encode_mpeg2_add_header.exit15
  %21 = load i64, ptr %3, align 8, !tbaa !191
  %22 = getelementptr inbounds nuw i8, ptr %6, i64 3040
  %23 = load i64, ptr %22, align 8, !tbaa !192
  %24 = shl i64 %23, 3
  %25 = getelementptr inbounds nuw i8, ptr %6, i64 3048
  %26 = load i64, ptr %25, align 8, !tbaa !193
  %27 = sub i64 %24, %26
  %28 = icmp ult i64 %21, %27
  br i1 %28, label %29, label %30

29:                                               ; preds = %20
  tail call void (ptr, i32, ptr, ...) @av_log(ptr noundef nonnull %0, i32 noundef 16, ptr noundef nonnull @.str.66, i64 noundef %21, i64 noundef %27) #10
  br label %vaapi_encode_mpeg2_write_fragment.exit

30:                                               ; preds = %20
  %31 = load ptr, ptr %7, align 8, !tbaa !194
  tail call void @llvm.memcpy.p0.p0.i64(ptr align 1 %2, ptr align 1 %31, i64 %23, i1 false)
  %32 = load i64, ptr %22, align 8, !tbaa !192
  %33 = shl i64 %32, 3
  %34 = load i64, ptr %25, align 8, !tbaa !193
  %35 = sub i64 %33, %34
  store i64 %35, ptr %3, align 8, !tbaa !191
  br label %vaapi_encode_mpeg2_write_fragment.exit

vaapi_encode_mpeg2_write_fragment.exit:           ; preds = %30, %29, %19, %vaapi_encode_mpeg2_add_header.exit15.thread, %vaapi_encode_mpeg2_add_header.exit.thread
  tail call void @ff_cbs_fragment_reset(ptr noundef nonnull %7) #10
  ret i32 0
}